; Function Attrs: nounwind uwtable
define internal ptr @my_int_sum(ptr readnone captures(none) %0, ptr noundef readonly captures(none) %1, i64 noundef %2) #0 {
  %.not = icmp eq i64 %2, 2
  br i1 %.not, label %7, label %4

4:                                                ; preds = %3
  %5 = load ptr, ptr @PyExc_TypeError, align 8, !tbaa !3
  %6 = tail call ptr (ptr, ptr, ...) @PyErr_Format(ptr noundef %5, ptr noundef nonnull @.str.8, i64 noundef %2) #2
  br label %29

7:                                                ; preds = %3
  %8 = load ptr, ptr %1, align 8, !tbaa !3
  %9 = tail call i32 @PyLong_AsInt(ptr noundef %8) #2
  %10 = icmp eq i32 %9, -1
  br i1 %10, label %11, label %13

11:                                               ; preds = %7
  %12 = tail call ptr @PyErr_Occurred() #2
  %.not14 = icmp eq ptr %12, null
  br i1 %.not14, label %13, label %29

13:                                               ; preds = %11, %7
  %14 = getelementptr i8, ptr %1, i64 8
  %15 = load ptr, ptr %14, align 8, !tbaa !3
  %16 = tail call i32 @PyLong_AsInt(ptr noundef %15) #2
  %17 = icmp eq i32 %16, -1
  br i1 %17, label %19, label %.split

.split:                                           ; preds = %13
  %18 = add i32 %16, %9
  br label %22

19:                                               ; preds = %13
  %20 = tail call ptr @PyErr_Occurred() #2
  %.not15 = icmp eq ptr %20, null
  br i1 %.not15, label %.split11, label %29

.split11:                                         ; preds = %19
  %21 = add i32 %9, -1
  br label %22

22:                                               ; preds = %.split11, %.split
  %phi.call = phi i32 [ %18, %.split ], [ %21, %.split11 ]
  %23 = icmp eq i32 %phi.call, -1
  br i1 %23, label %24, label %26

24:                                               ; preds = %22
  %25 = tail call ptr @PyErr_Occurred() #2
  %.not16 = icmp eq ptr %25, null
  br i1 %.not16, label %26, label %29

26:                                               ; preds = %24, %22
  %27 = sext i32 %phi.call to i64
  %28 = tail call ptr @PyLong_FromLong(i64 noundef %27) #2
  br label %29

29:                                               ; preds = %24, %19, %11, %26, %4
  %.0 = phi ptr [ null, %4 ], [ null, %11 ], [ null, %19 ], [ null, %24 ], [ %28, %26 ]
  ret ptr %.0
}